Certificate:
    Data:
        Version: 3 (0x2)
        Serial Number: 18243835030986318950 (0xfd2f1f4cfac46466)
    Signature Algorithm: sha1WithRSAEncryption
        Issuer: C=JP, ST=Osaka, O=Osaka Institute of Technology, CN=WAACS CA
        Validity
            Not Before: Jun 21 15:44:58 2015 GMT
            Not After : Jun 20 15:44:58 2018 GMT
        Subject: C=JP, ST=Osaka, O=Osaka Institute of Technology, CN=WAACS CA
        Subject Public Key Info:
            Public Key Algorithm: rsaEncryption
                Public-Key: (2048 bit)
                Modulus:
                    00:cb:25:3d:e4:81:71:f2:40:ba:e1:6d:2c:b7:c4:
                    47:32:e2:9d:2d:5d:16:27:5c:1c:56:29:b6:56:e5:
                    32:fb:b1:58:49:44:3b:0b:55:6e:ca:07:48:65:a7:
                    1d:ad:2d:06:89:1d:5e:a0:89:51:fa:e5:37:62:37:
                    65:85:0a:bd:b9:47:8f:7f:00:37:c9:84:8b:72:73:
                    fd:e4:37:35:82:b0:5e:ed:32:98:fe:78:68:b6:e3:
                    13:2c:46:74:bb:09:cd:75:60:1d:52:b3:d3:10:c1:
                    c8:f8:8f:75:6d:01:b8:c4:09:cc:85:3c:0c:00:52:
                    2f:42:d2:bc:6e:de:4d:69:f1:24:21:5e:10:79:ef:
                    ea:fc:fb:f8:b0:f3:c0:f3:90:e2:96:15:e5:59:6a:
                    7d:2f:f5:d9:af:da:4c:b8:03:71:d7:5b:b8:ac:ec:
                    2e:f8:f2:af:72:7a:07:5f:b9:a3:7c:43:09:fe:37:
                    07:52:65:63:da:72:48:a1:ee:71:db:9e:af:ec:04:
                    46:39:d5:ab:b1:75:cb:0d:c2:5d:82:aa:0c:9c:32:
                    ce:d5:d3:d6:48:fa:dc:ef:e8:27:10:b1:e0:48:42:
                    ea:d6:89:d0:d6:10:60:d7:8d:b0:17:4f:bc:d3:b0:
                    d5:10:39:aa:e7:1b:c2:15:5e:1a:cc:a7:28:a0:f6:
                    58:4d
                Exponent: 65537 (0x10001)
        X509v3 extensions:
            X509v3 Subject Key Identifier: 
                04:6B:8C:F0:20:69:2C:5B:ED:74:E7:A2:B8:C7:C1:F7:40:0C:43:FF
            X509v3 Authority Key Identifier: 
                keyid:04:6B:8C:F0:20:69:2C:5B:ED:74:E7:A2:B8:C7:C1:F7:40:0C:43:FF

            X509v3 Basic Constraints: 
                CA:TRUE
    Signature Algorithm: sha1WithRSAEncryption
         33:2b:2f:a5:8f:d4:ad:01:3c:20:2c:a7:58:10:35:3f:ea:e3:
         97:34:ea:92:0c:0c:4c:88:84:4c:22:45:da:10:3e:40:5d:ff:
         30:8c:92:28:5a:c9:88:3b:c3:85:37:68:32:28:73:90:26:f3:
         94:37:cb:94:dd:1c:8a:d8:0d:b3:4c:30:8a:74:a3:8a:fc:c9:
         38:dd:c9:89:29:ad:7d:78:d8:59:5a:ee:b1:b6:06:7f:10:38:
         6c:a4:42:4a:4e:1d:ac:02:00:20:cb:c8:53:06:f5:39:be:67:
         48:84:4a:76:ea:a2:a0:18:93:33:81:e2:44:14:a2:db:3c:b2:
         7e:9e:96:21:16:24:6c:87:ff:36:03:04:eb:90:c8:18:34:25:
         e6:1d:fb:43:17:81:74:c7:a1:d2:fa:f7:eb:09:64:e7:36:03:
         85:c2:35:9e:c9:cc:ad:5e:2c:c4:86:87:c5:e0:a0:a9:60:a2:
         5c:27:bf:01:ad:7c:b1:b1:5e:6d:38:0f:45:76:d8:b1:15:2c:
         aa:c9:2d:ff:ff:d8:56:5e:42:7c:fb:af:fc:d8:2e:c8:21:58:
         19:40:42:15:b6:84:68:a5:28:40:25:c1:96:c6:7a:ab:e9:b6:
         7c:6f:00:71:0f:f9:b0:54:6b:9e:a6:7c:7e:80:8a:7e:05:71:
         67:16:c7:95
-----BEGIN CERTIFICATE-----
MIIDgzCCAmugAwIBAgIJAP0vH0z6xGRmMA0GCSqGSIb3DQEBBQUAMFgxCzAJBgNV
BAYTAkpQMQ4wDAYDVQQIDAVPc2FrYTEmMCQGA1UECgwdT3Nha2EgSW5zdGl0dXRl
IG9mIFRlY2hub2xvZ3kxETAPBgNVBAMMCFdBQUNTIENBMB4XDTE1MDYyMTE1NDQ1
OFoXDTE4MDYyMDE1NDQ1OFowWDELMAkGA1UEBhMCSlAxDjAMBgNVBAgMBU9zYWth
MSYwJAYDVQQKDB1Pc2FrYSBJbnN0aXR1dGUgb2YgVGVjaG5vbG9neTERMA8GA1UE
AwwIV0FBQ1MgQ0EwggEiMA0GCSqGSIb3DQEBAQUAA4IBDwAwggEKAoIBAQDLJT3k
gXHyQLrhbSy3xEcy4p0tXRYnXBxWKbZW5TL7sVhJRDsLVW7KB0hlpx2tLQaJHV6g
iVH65TdiN2WFCr25R49/ADfJhItyc/3kNzWCsF7tMpj+eGi24xMsRnS7Cc11YB1S
s9MQwcj4j3VtAbjECcyFPAwAUi9C0rxu3k1p8SQhXhB57+r8+/iw88DzkOKWFeVZ
an0v9dmv2ky4A3HXW7is7C748q9yegdfuaN8Qwn+NwdSZWPackih7nHbnq/sBEY5
1auxdcsNwl2CqgycMs7V09ZI+tzv6CcQseBIQurWidDWEGDXjbAXT7zTsNUQOarn
G8IVXhrMpyig9lhNAgMBAAGjUDBOMB0GA1UdDgQWBBQEa4zwIGksW+1056K4x8H3
QAxD/zAfBgNVHSMEGDAWgBQEa4zwIGksW+1056K4x8H3QAxD/zAMBgNVHRMEBTAD
AQH/MA0GCSqGSIb3DQEBBQUAA4IBAQAzKy+lj9StATwgLKdYEDU/6uOXNOqSDAxM
iIRMIkXaED5AXf8wjJIoWsmIO8OFN2gyKHOQJvOUN8uU3RyK2A2zTDCKdKOK/Mk4
3cmJKa19eNhZWu6xtgZ/EDhspEJKTh2sAgAgy8hTBvU5vmdIhEp26qKgGJMzgeJE
FKLbPLJ+npYhFiRsh/82AwTrkMgYNCXmHftDF4F0x6HS+vfrCWTnNgOFwjWeycyt
XizEhofF4KCpYKJcJ78BrXyxsV5tOA9FdtixFSyqyS3//9hWXkJ8+6/82C7IIVgZ
QEIVtoRopShAJcGWxnqr6bZ8bwBxD/mwVGuepnx+gIp+BXFnFseV
-----END CERTIFICATE-----
