Certificate:
    Data:
        Version: 3 (0x2)
        Serial Number: 18243835030986318951 (0xfd2f1f4cfac46467)
    Signature Algorithm: sha1WithRSAEncryption
        Issuer: C=JP, ST=Osaka, O=Osaka Institute of Technology, CN=WAACS CA
        Validity
            Not Before: Jun 21 15:49:54 2015 GMT
            Not After : Jun 20 15:49:54 2016 GMT
        Subject: C=JP, ST=Osaka, L=Osaka, O=Osaka Institute of Technology, CN=waacs.elc.oit.ac.jp
        Subject Public Key Info:
            Public Key Algorithm: rsaEncryption
                Public-Key: (2048 bit)
                Modulus:
                    00:ab:b7:e7:d8:5a:48:43:06:2b:e5:5b:e8:91:46:
                    1e:1e:26:f9:3e:68:fd:25:4a:fe:b5:5e:55:8c:8d:
                    6b:72:6a:a6:ea:61:d6:56:95:da:a1:91:06:fe:28:
                    35:63:28:9b:c2:a4:62:fb:6d:88:86:9b:a3:ba:4d:
                    a8:57:ff:d2:6d:e4:a0:f5:64:b6:ee:a5:a6:13:e8:
                    f4:81:14:6c:d5:6f:fa:8e:50:06:a0:0a:55:27:52:
                    96:c6:d7:36:85:8b:47:53:a1:d1:7e:c2:27:d7:f2:
                    8e:44:6b:24:09:1a:39:aa:93:3e:51:8c:6f:41:59:
                    76:f7:7c:df:9b:48:e1:c6:ce:0a:a7:39:43:c6:9a:
                    c4:24:8b:96:96:24:c2:54:fd:b8:23:e3:42:43:45:
                    6a:ab:6b:37:9e:cf:bf:76:33:d0:62:80:cb:ec:87:
                    64:c4:e1:03:99:fe:6c:28:0c:5a:38:0e:cd:a8:53:
                    5b:bb:d0:75:ba:cc:da:ee:66:e7:96:b0:0d:64:8c:
                    89:be:12:84:8e:21:50:bb:b3:2e:7c:a0:4d:f1:f8:
                    bf:08:9f:71:a3:73:e8:b8:94:fb:50:48:e5:f3:33:
                    30:ff:33:26:3a:c7:84:52:90:fe:1b:3d:ff:8e:f2:
                    a4:97:70:6a:48:57:65:c3:35:e8:86:da:0d:b6:07:
                    c7:b1
                Exponent: 65537 (0x10001)
        X509v3 extensions:
            X509v3 Basic Constraints: 
                CA:FALSE
            Netscape Comment: 
                OpenSSL Generated Certificate
            X509v3 Subject Key Identifier: 
                84:1E:06:3C:04:18:76:2A:C4:AC:15:97:79:61:A5:B6:8F:F6:F6:9E
            X509v3 Authority Key Identifier: 
                keyid:04:6B:8C:F0:20:69:2C:5B:ED:74:E7:A2:B8:C7:C1:F7:40:0C:43:FF

    Signature Algorithm: sha1WithRSAEncryption
         21:90:2e:ce:00:e3:b1:25:70:ba:80:8a:a5:41:6b:fd:37:88:
         23:36:42:93:c2:fe:2b:27:2a:0b:d6:b8:17:79:55:19:4c:6d:
         4c:d6:b4:4d:48:ca:5b:e2:e6:14:f7:5a:74:9a:9c:c4:e5:a1:
         e1:c4:31:e7:a8:52:91:18:ea:41:c6:1a:72:a3:65:f8:d5:95:
         08:b3:7f:e2:64:bf:c2:64:eb:75:77:0e:3a:f1:6c:36:45:6a:
         bf:7d:53:85:f7:88:9e:0b:f9:07:76:52:6d:7c:13:a6:5d:09:
         59:07:96:02:30:38:c5:b7:e3:f5:65:59:97:83:9e:dd:05:75:
         b1:fe:b6:31:1d:f5:64:3a:a0:f7:d5:b5:3d:92:b6:23:1e:e2:
         a5:21:4b:da:14:69:f2:c9:7f:7f:12:a7:c9:cf:b3:07:a9:90:
         de:08:e4:06:6c:c0:cc:07:74:f2:bd:2a:f8:df:7c:4a:0d:07:
         f1:04:75:e6:89:81:53:b5:0d:86:48:11:df:e5:3f:d4:ca:0d:
         73:da:36:07:2b:5f:50:fc:44:7c:c2:f1:5f:50:a7:b5:e3:9d:
         83:70:c9:01:48:4f:75:1e:01:f0:5f:8b:4d:c1:6b:97:8e:ad:
         b8:b2:be:9e:bf:55:a2:7d:25:e1:58:80:bb:73:d9:f0:6d:21:
         46:67:3b:5f
-----BEGIN CERTIFICATE-----
MIIDyTCCArGgAwIBAgIJAP0vH0z6xGRnMA0GCSqGSIb3DQEBBQUAMFgxCzAJBgNV
BAYTAkpQMQ4wDAYDVQQIDAVPc2FrYTEmMCQGA1UECgwdT3Nha2EgSW5zdGl0dXRl
IG9mIFRlY2hub2xvZ3kxETAPBgNVBAMMCFdBQUNTIENBMB4XDTE1MDYyMTE1NDk1
NFoXDTE2MDYyMDE1NDk1NFowczELMAkGA1UEBhMCSlAxDjAMBgNVBAgMBU9zYWth
MQ4wDAYDVQQHDAVPc2FrYTEmMCQGA1UECgwdT3Nha2EgSW5zdGl0dXRlIG9mIFRl
Y2hub2xvZ3kxHDAaBgNVBAMME3dhYWNzLmVsYy5vaXQuYWMuanAwggEiMA0GCSqG
SIb3DQEBAQUAA4IBDwAwggEKAoIBAQCrt+fYWkhDBivlW+iRRh4eJvk+aP0lSv61
XlWMjWtyaqbqYdZWldqhkQb+KDVjKJvCpGL7bYiGm6O6TahX/9Jt5KD1ZLbupaYT
6PSBFGzVb/qOUAagClUnUpbG1zaFi0dTodF+wifX8o5EayQJGjmqkz5RjG9BWXb3
fN+bSOHGzgqnOUPGmsQki5aWJMJU/bgj40JDRWqrazeez792M9BigMvsh2TE4QOZ
/mwoDFo4Ds2oU1u70HW6zNruZueWsA1kjIm+EoSOIVC7sy58oE3x+L8In3Gjc+i4
lPtQSOXzMzD/MyY6x4RSkP4bPf+O8qSXcGpIV2XDNeiG2g22B8exAgMBAAGjezB5
MAkGA1UdEwQCMAAwLAYJYIZIAYb4QgENBB8WHU9wZW5TU0wgR2VuZXJhdGVkIENl
cnRpZmljYXRlMB0GA1UdDgQWBBSEHgY8BBh2KsSsFZd5YaW2j/b2njAfBgNVHSME
GDAWgBQEa4zwIGksW+1056K4x8H3QAxD/zANBgkqhkiG9w0BAQUFAAOCAQEAIZAu
zgDjsSVwuoCKpUFr/TeIIzZCk8L+KycqC9a4F3lVGUxtTNa0TUjKW+LmFPdadJqc
xOWh4cQx56hSkRjqQcYacqNl+NWVCLN/4mS/wmTrdXcOOvFsNkVqv31ThfeIngv5
B3ZSbXwTpl0JWQeWAjA4xbfj9WVZl4Oe3QV1sf62MR31ZDqg99W1PZK2Ix7ipSFL
2hRp8sl/fxKnyc+zB6mQ3gjkBmzAzAd08r0q+N98Sg0H8QR15omBU7UNhkgR3+U/
1MoNc9o2BytfUPxEfMLxX1CnteOdg3DJAUhPdR4B8F+LTcFrl46tuLK+nr9Von0l
4ViAu3PZ8G0hRmc7Xw==
-----END CERTIFICATE-----
